target datalayout = "e-m:e-p270:32:32-p271:32:32-p272:64:64-i64:64-i128:128-f80:128-n8:16:32:64-S128"
target triple = "x86_64-pc-linux-gnu"

; Function Attrs: mustprogress nounwind uwtable
define internal void @_ZN2cvL9weightL12EPfiS0_(ptr noundef %0, i32 noundef %1, ptr noundef %2) #6 {
  %4 = alloca ptr, align 8
  %5 = alloca i32, align 4
  %6 = alloca ptr, align 8
  %7 = alloca i32, align 4
  store ptr %0, ptr %4, align 8, !tbaa !37
  store i32 %1, ptr %5, align 4, !tbaa !10
  store ptr %2, ptr %6, align 8, !tbaa !37
  call void @llvm.lifetime.start.p0(i64 4, ptr %7) #15
  store i32 0, ptr %7, align 4, !tbaa !10
  br label %8

8:                                                ; preds = %33, %3
  %9 = load i32, ptr %7, align 4, !tbaa !10
  %10 = load i32, ptr %5, align 4, !tbaa !10
  %11 = icmp slt i32 %9, %10
  br i1 %11, label %12, label %36

12:                                               ; preds = %8
  %13 = load ptr, ptr %4, align 8, !tbaa !37
  %14 = load i32, ptr %7, align 4, !tbaa !10
  %15 = sext i32 %14 to i64
  %16 = getelementptr inbounds float, ptr %13, i64 %15
  %17 = load float, ptr %16, align 4, !tbaa !35
  %18 = load ptr, ptr %4, align 8, !tbaa !37
  %19 = load i32, ptr %7, align 4, !tbaa !10
  %20 = sext i32 %19 to i64
  %21 = getelementptr inbounds float, ptr %18, i64 %20
  %22 = load float, ptr %21, align 4, !tbaa !35
  %23 = fmul float %17, %22
  %24 = fpext float %23 to double
  %25 = call double @llvm.fmuladd.f64(double %24, double 5.000000e-01, double 1.000000e+00)
  %26 = call double @sqrt(double noundef %25) #15, !tbaa !10
  %27 = fptrunc double %26 to float
  %28 = fdiv float 1.000000e+00, %27
  %29 = load ptr, ptr %6, align 8, !tbaa !37
  %30 = load i32, ptr %7, align 4, !tbaa !10
  %31 = sext i32 %30 to i64
  %32 = getelementptr inbounds float, ptr %29, i64 %31
  store float %28, ptr %32, align 4, !tbaa !35
  br label %33

33:                                               ; preds = %12
  %34 = load i32, ptr %7, align 4, !tbaa !10
  %35 = add nsw i32 %34, 1
  store i32 %35, ptr %7, align 4, !tbaa !10
  br label %8, !llvm.loop !87

36:                                               ; preds = %8
  call void @llvm.lifetime.end.p0(i64 4, ptr %7) #15
  ret void
}