; Function Attrs: mustprogress nofree nounwind memory(write, argmem: readwrite) uwtable
define internal void @_ZN2cvL9weightL12EPfiS0_(ptr noundef readonly captures(none) %0, i32 noundef %1, ptr noundef writeonly captures(none) %2) unnamed_addr #8 {
  %4 = icmp sgt i32 %1, 0
  br i1 %4, label %.lr.ph.preheader, label %._crit_edge

.lr.ph.preheader:                                 ; preds = %3
  %wide.trip.count = zext nneg i32 %1 to i64
  br label %.lr.ph

.lr.ph:                                           ; preds = %.lr.ph.preheader, %.lr.ph
  %indvars.iv = phi i64 [ 0, %.lr.ph.preheader ], [ %indvars.iv.next, %.lr.ph ]
  %5 = getelementptr inbounds nuw float, ptr %0, i64 %indvars.iv
  %6 = load float, ptr %5, align 4, !tbaa !33
  %7 = fmul float %6, %6
  %8 = fpext float %7 to double
  %9 = tail call double @llvm.fmuladd.f64(double %8, double 5.000000e-01, double 1.000000e+00)
  %10 = tail call double @sqrt(double noundef %9) #18, !tbaa !37
  %11 = fptrunc double %10 to float
  %12 = fdiv float 1.000000e+00, %11
  %13 = getelementptr inbounds nuw float, ptr %2, i64 %indvars.iv
  store float %12, ptr %13, align 4, !tbaa !33
  %indvars.iv.next = add nuw nsw i64 %indvars.iv, 1
  %exitcond.not = icmp eq i64 %indvars.iv.next, %wide.trip.count
  br i1 %exitcond.not, label %._crit_edge, label %.lr.ph, !llvm.loop !72

._crit_edge:                                      ; preds = %.lr.ph, %3
  ret void
}